target datalayout = "e-m:e-p270:32:32-p271:32:32-p272:64:64-i64:64-i128:128-f80:128-n8:16:32:64-S128"
target triple = "x86_64-unknown-linux-gnu"

%"class.cvc5::internal::prop::SatLiteral" = type { i64 }
%"struct.cvc5::internal::Minisat::Lit" = type { i32 }

@_ZN4cvc58internal4propL15undefSatLiteralE = internal global %"class.cvc5::internal::prop::SatLiteral" zeroinitializer, align 8
@_ZN4cvc58internal7MinisatL9lit_UndefE = internal constant %"struct.cvc5::internal::Minisat::Lit" { i32 -2 }, align 4

; Function Attrs: mustprogress nounwind uwtable
define linkonce_odr hidden void @_ZN4cvc58internal4prop10SatLiteralC2Emb(ptr noundef nonnull align 8 dereferenceable(8) %this, i64 noundef %var, i1 noundef zeroext %negated) unnamed_addr #4 comdat align 2 {
entry:
  %this.addr = alloca ptr, align 8
  %var.addr = alloca i64, align 8
  %negated.addr = alloca i8, align 1
  store ptr %this, ptr %this.addr, align 8
  store i64 %var, ptr %var.addr, align 8
  %frombool = zext i1 %negated to i8
  store i8 %frombool, ptr %negated.addr, align 1
  %this1 = load ptr, ptr %this.addr, align 8
  %0 = load i64, ptr %var.addr, align 8
  %1 = load i64, ptr %var.addr, align 8
  %add = add i64 %0, %1
  %2 = load i8, ptr %negated.addr, align 1
  %tobool = trunc i8 %2 to i1
  %conv = zext i1 %tobool to i32
  %conv2 = sext i32 %conv to i64
  %add3 = add i64 %add, %conv2
  %d_value = getelementptr inbounds %"class.cvc5::internal::prop::SatLiteral", ptr %this1, i32 0, i32 0
  store i64 %add3, ptr %d_value, align 8
  ret void
}

; Function Attrs: mustprogress nounwind uwtable
define linkonce_odr hidden noundef zeroext i1 @_ZN4cvc58internal7Minisat4signENS1_3LitE(i32 %p.coerce) #4 comdat {
entry:
  %p = alloca %"struct.cvc5::internal::Minisat::Lit", align 4
  %coerce.dive = getelementptr inbounds %"struct.cvc5::internal::Minisat::Lit", ptr %p, i32 0, i32 0
  store i32 %p.coerce, ptr %coerce.dive, align 4
  %x = getelementptr inbounds %"struct.cvc5::internal::Minisat::Lit", ptr %p, i32 0, i32 0
  %0 = load i32, ptr %x, align 4
  %and = and i32 %0, 1
  %tobool = icmp ne i32 %and, 0
  ret i1 %tobool
}

; Function Attrs: mustprogress nounwind uwtable
define linkonce_odr hidden noundef i32 @_ZN4cvc58internal7Minisat3varENS1_3LitE(i32 %p.coerce) #4 comdat {
entry:
  %p = alloca %"struct.cvc5::internal::Minisat::Lit", align 4
  %coerce.dive = getelementptr inbounds %"struct.cvc5::internal::Minisat::Lit", ptr %p, i32 0, i32 0
  store i32 %p.coerce, ptr %coerce.dive, align 4
  %x = getelementptr inbounds %"struct.cvc5::internal::Minisat::Lit", ptr %p, i32 0, i32 0
  %0 = load i32, ptr %x, align 4
  %shr = ashr i32 %0, 1
  ret i32 %shr
}

; Function Attrs: mustprogress nounwind uwtable
define linkonce_odr hidden noundef zeroext i1 @_ZNK4cvc58internal7Minisat3LiteqES2_(ptr noundef nonnull align 4 dereferenceable(4) %this, i32 %p.coerce) #4 comdat align 2 {
entry:
  %p = alloca %"struct.cvc5::internal::Minisat::Lit", align 4
  %this.addr = alloca ptr, align 8
  %coerce.dive = getelementptr inbounds %"struct.cvc5::internal::Minisat::Lit", ptr %p, i32 0, i32 0
  store i32 %p.coerce, ptr %coerce.dive, align 4
  store ptr %this, ptr %this.addr, align 8
  %this1 = load ptr, ptr %this.addr, align 8
  %x = getelementptr inbounds %"struct.cvc5::internal::Minisat::Lit", ptr %this1, i32 0, i32 0
  %0 = load i32, ptr %x, align 4
  %x2 = getelementptr inbounds %"struct.cvc5::internal::Minisat::Lit", ptr %p, i32 0, i32 0
  %1 = load i32, ptr %x2, align 4
  %cmp = icmp eq i32 %0, %1
  ret i1 %cmp
}

; Function Attrs: mustprogress uwtable
define hidden i64 @_ZN4cvc58internal4prop16MinisatSatSolver12toSatLiteralENS0_7Minisat3LitE(i32 %lit.coerce) #5 align 2 {
entry:
  %retval = alloca %"class.cvc5::internal::prop::SatLiteral", align 8
  %lit = alloca %"struct.cvc5::internal::Minisat::Lit", align 4
  %agg.tmp = alloca %"struct.cvc5::internal::Minisat::Lit", align 4
  %agg.tmp2 = alloca %"struct.cvc5::internal::Minisat::Lit", align 4
  %agg.tmp5 = alloca %"struct.cvc5::internal::Minisat::Lit", align 4
  %coerce.dive = getelementptr inbounds %"struct.cvc5::internal::Minisat::Lit", ptr %lit, i32 0, i32 0
  store i32 %lit.coerce, ptr %coerce.dive, align 4
  call void @llvm.memcpy.p0.p0.i64(ptr align 4 %agg.tmp, ptr align 4 @_ZN4cvc58internal7MinisatL9lit_UndefE, i64 4, i1 false)
  %coerce.dive1 = getelementptr inbounds %"struct.cvc5::internal::Minisat::Lit", ptr %agg.tmp, i32 0, i32 0
  %0 = load i32, ptr %coerce.dive1, align 4
  %call = call noundef zeroext i1 @_ZNK4cvc58internal7Minisat3LiteqES2_(ptr noundef nonnull align 4 dereferenceable(4) %lit, i32 %0)
  br i1 %call, label %if.then, label %if.end

if.then:                                          ; preds = %entry
  call void @llvm.memcpy.p0.p0.i64(ptr align 8 %retval, ptr align 8 @_ZN4cvc58internal4propL15undefSatLiteralE, i64 8, i1 false)
  br label %return

if.end:                                           ; preds = %entry
  call void @llvm.memcpy.p0.p0.i64(ptr align 4 %agg.tmp2, ptr align 4 %lit, i64 4, i1 false)
  %coerce.dive3 = getelementptr inbounds %"struct.cvc5::internal::Minisat::Lit", ptr %agg.tmp2, i32 0, i32 0
  %1 = load i32, ptr %coerce.dive3, align 4
  %call4 = call noundef i32 @_ZN4cvc58internal7Minisat3varENS1_3LitE(i32 %1)
  %conv = sext i32 %call4 to i64
  call void @llvm.memcpy.p0.p0.i64(ptr align 4 %agg.tmp5, ptr align 4 %lit, i64 4, i1 false)
  %coerce.dive6 = getelementptr inbounds %"struct.cvc5::internal::Minisat::Lit", ptr %agg.tmp5, i32 0, i32 0
  %2 = load i32, ptr %coerce.dive6, align 4
  %call7 = call noundef zeroext i1 @_ZN4cvc58internal7Minisat4signENS1_3LitE(i32 %2)
  call void @_ZN4cvc58internal4prop10SatLiteralC2Emb(ptr noundef nonnull align 8 dereferenceable(8) %retval, i64 noundef %conv, i1 noundef zeroext %call7)
  br label %return

return:                                           ; preds = %if.end, %if.then
  %coerce.dive8 = getelementptr inbounds %"class.cvc5::internal::prop::SatLiteral", ptr %retval, i32 0, i32 0
  %3 = load i64, ptr %coerce.dive8, align 8
  ret i64 %3
}

; Function Attrs: mustprogress uwtable
define hidden i64 @_ZN4cvc58internal12toSatLiteralINS0_7Minisat6SolverEEENS0_4prop10SatLiteralENT_4TLitE(i32 %lit.coerce) #5 {
entry:
  %retval = alloca %"class.cvc5::internal::prop::SatLiteral", align 8
  %lit = alloca %"struct.cvc5::internal::Minisat::Lit", align 4
  %agg.tmp = alloca %"struct.cvc5::internal::Minisat::Lit", align 4
  %coerce.dive = getelementptr inbounds %"struct.cvc5::internal::Minisat::Lit", ptr %lit, i32 0, i32 0
  store i32 %lit.coerce, ptr %coerce.dive, align 4
  call void @llvm.memcpy.p0.p0.i64(ptr align 4 %agg.tmp, ptr align 4 %lit, i64 4, i1 false)
  %coerce.dive1 = getelementptr inbounds %"struct.cvc5::internal::Minisat::Lit", ptr %agg.tmp, i32 0, i32 0
  %0 = load i32, ptr %coerce.dive1, align 4
  %call = call i64 @_ZN4cvc58internal4prop16MinisatSatSolver12toSatLiteralENS0_7Minisat3LitE(i32 %0)
  %coerce.dive2 = getelementptr inbounds %"class.cvc5::internal::prop::SatLiteral", ptr %retval, i32 0, i32 0
  store i64 %call, ptr %coerce.dive2, align 8
  %coerce.dive3 = getelementptr inbounds %"class.cvc5::internal::prop::SatLiteral", ptr %retval, i32 0, i32 0
  %1 = load i64, ptr %coerce.dive3, align 8
  ret i64 %1
}