; Function Attrs: mustprogress nofree norecurse nosync nounwind willreturn memory(read, argmem: none, inaccessiblemem: none) uwtable
define hidden i64 @_ZN4cvc58internal12toSatLiteralINS0_7Minisat6SolverEEENS0_4prop10SatLiteralENT_4TLitE(i32 %lit.coerce) local_unnamed_addr #11 {
entry:
  %cmp.i.i = icmp eq i32 %lit.coerce, -2
  br i1 %cmp.i.i, label %if.then.i, label %if.end.i

if.then.i:                                        ; preds = %entry
  %.b = load i1, ptr @_ZN4cvc58internal4propL15undefSatLiteralE.0, align 8
  %0 = select i1 %.b, i64 -2, i64 0
  br label %_ZN4cvc58internal4prop16MinisatSatSolver12toSatLiteralENS0_7Minisat3LitE.exit

if.end.i:                                         ; preds = %entry
  %shr.i.i = ashr i32 %lit.coerce, 1
  %conv.i = sext i32 %shr.i.i to i64
  %and.i.i = and i32 %lit.coerce, 1
  %add.i.i = shl nsw i64 %conv.i, 1
  %conv2.i.i = zext nneg i32 %and.i.i to i64
  %add3.i.i = or disjoint i64 %add.i.i, %conv2.i.i
  br label %_ZN4cvc58internal4prop16MinisatSatSolver12toSatLiteralENS0_7Minisat3LitE.exit

_ZN4cvc58internal4prop16MinisatSatSolver12toSatLiteralENS0_7Minisat3LitE.exit: ; preds = %if.then.i, %if.end.i
  %retval.sroa.0.0.i = phi i64 [ %0, %if.then.i ], [ %add3.i.i, %if.end.i ]
  ret i64 %retval.sroa.0.0.i
}